	.file	"Point3d.cpp"
	.text
#APP
	.globl _ZSt21ios_base_library_initv
#NO_APP
	.align 2
	.globl	_ZN7Point3d12moveByVectorERK8Vector3d
	.type	_ZN7Point3d12moveByVectorERK8Vector3d, @function
_ZN7Point3d12moveByVectorERK8Vector3d:
.LFB2012:
	.cfi_startproc
	pushq	%rbp
	.cfi_def_cfa_offset 16
	.cfi_offset 6, -16
	movq	%rsp, %rbp
	.cfi_def_cfa_register 6
	movq	%rdi, -8(%rbp)
	movq	%rsi, -16(%rbp)
	movq	-8(%rbp), %rax
	movsd	(%rax), %xmm1
	movq	-16(%rbp), %rax
	movsd	(%rax), %xmm0
	addsd	%xmm1, %xmm0
	movq	-8(%rbp), %rax
	movsd	%xmm0, (%rax)
	movq	-8(%rbp), %rax
	movsd	8(%rax), %xmm1
	movq	-16(%rbp), %rax
	movsd	8(%rax), %xmm0
	addsd	%xmm1, %xmm0
	movq	-8(%rbp), %rax
	movsd	%xmm0, 8(%rax)
	movq	-8(%rbp), %rax
	movsd	16(%rax), %xmm1
	movq	-16(%rbp), %rax
	movsd	16(%rax), %xmm0
	addsd	%xmm1, %xmm0
	movq	-8(%rbp), %rax
	movsd	%xmm0, 16(%rax)
	nop
	popq	%rbp
	.cfi_def_cfa 7, 8
	ret
	.cfi_endproc
.LFE2012:
	.size	_ZN7Point3d12moveByVectorERK8Vector3d, .-_ZN7Point3d12moveByVectorERK8Vector3d
	.section	.rodata
.LC0:
	.string	"Point("
.LC1:
	.string	", "
.LC2:
	.string	")\n"
	.text
	.align 2
	.globl	_ZNK7Point3d5printEv
	.type	_ZNK7Point3d5printEv, @function
_ZNK7Point3d5printEv:
.LFB2013:
	.cfi_startproc
	pushq	%rbp
	.cfi_def_cfa_offset 16
	.cfi_offset 6, -16
	movq	%rsp, %rbp
	.cfi_def_cfa_register 6
	subq	$16, %rsp
	movq	%rdi, -8(%rbp)
	leaq	.LC0(%rip), %rax
	movq	%rax, %rsi
	leaq	_ZSt4cout(%rip), %rax
	movq	%rax, %rdi
	call	_ZStlsISt11char_traitsIcEERSt13basic_ostreamIcT_ES5_PKc@PLT
	movq	%rax, %rdx
	movq	-8(%rbp), %rax
	movq	(%rax), %rax
	movq	%rax, %xmm0
	movq	%rdx, %rdi
	call	_ZNSolsEd@PLT
	movq	%rax, %rdx
	leaq	.LC1(%rip), %rax
	movq	%rax, %rsi
	movq	%rdx, %rdi
	call	_ZStlsISt11char_traitsIcEERSt13basic_ostreamIcT_ES5_PKc@PLT
	movq	%rax, %rdx
	movq	-8(%rbp), %rax
	movq	8(%rax), %rax
	movq	%rax, %xmm0
	movq	%rdx, %rdi
	call	_ZNSolsEd@PLT
	movq	%rax, %rdx
	leaq	.LC1(%rip), %rax
	movq	%rax, %rsi
	movq	%rdx, %rdi
	call	_ZStlsISt11char_traitsIcEERSt13basic_ostreamIcT_ES5_PKc@PLT
	movq	%rax, %rdx
	movq	-8(%rbp), %rax
	movq	16(%rax), %rax
	movq	%rax, %xmm0
	movq	%rdx, %rdi
	call	_ZNSolsEd@PLT
	movq	%rax, %rdx
	leaq	.LC2(%rip), %rax
	movq	%rax, %rsi
	movq	%rdx, %rdi
	call	_ZStlsISt11char_traitsIcEERSt13basic_ostreamIcT_ES5_PKc@PLT
	nop
	leave
	.cfi_def_cfa 7, 8
	ret
	.cfi_endproc
.LFE2013:
	.size	_ZNK7Point3d5printEv, .-_ZNK7Point3d5printEv
	.align 2
	.globl	_ZN7Point3dC2Eddd
	.type	_ZN7Point3dC2Eddd, @function
_ZN7Point3dC2Eddd:
.LFB2015:
	.cfi_startproc
	pushq	%rbp
	.cfi_def_cfa_offset 16
	.cfi_offset 6, -16
	movq	%rsp, %rbp
	.cfi_def_cfa_register 6
	movq	%rdi, -8(%rbp)
	movsd	%xmm0, -16(%rbp)
	movsd	%xmm1, -24(%rbp)
	movsd	%xmm2, -32(%rbp)
	movq	-8(%rbp), %rax
	movsd	-16(%rbp), %xmm0
	movsd	%xmm0, (%rax)
	movq	-8(%rbp), %rax
	movsd	-24(%rbp), %xmm0
	movsd	%xmm0, 8(%rax)
	movq	-8(%rbp), %rax
	movsd	-32(%rbp), %xmm0
	movsd	%xmm0, 16(%rax)
	nop
	popq	%rbp
	.cfi_def_cfa 7, 8
	ret
	.cfi_endproc
.LFE2015:
	.size	_ZN7Point3dC2Eddd, .-_ZN7Point3dC2Eddd
	.globl	_ZN7Point3dC1Eddd
	.set	_ZN7Point3dC1Eddd,_ZN7Point3dC2Eddd
	.section	.rodata
	.type	_ZNSt8__detail30__integer_to_chars_is_unsignedIjEE, @object
	.size	_ZNSt8__detail30__integer_to_chars_is_unsignedIjEE, 1
_ZNSt8__detail30__integer_to_chars_is_unsignedIjEE:
	.byte	1
	.type	_ZNSt8__detail30__integer_to_chars_is_unsignedImEE, @object
	.size	_ZNSt8__detail30__integer_to_chars_is_unsignedImEE, 1
_ZNSt8__detail30__integer_to_chars_is_unsignedImEE:
	.byte	1
	.type	_ZNSt8__detail30__integer_to_chars_is_unsignedIyEE, @object
	.size	_ZNSt8__detail30__integer_to_chars_is_unsignedIyEE, 1
_ZNSt8__detail30__integer_to_chars_is_unsignedIyEE:
	.byte	1
	.ident	"GCC: (GNU) 14.2.1 20240805"
	.section	.note.GNU-stack,"",@progbits
